target datalayout = "e-m:e-p270:32:32-p271:32:32-p272:64:64-i64:64-i128:128-f80:128-n8:16:32:64-S128"
target triple = "x86_64-pc-linux-gnu"

%class.OffMeshConnectionTool = type <{ %struct.SampleTool, ptr, [3 x float], i8, i8, i8, i8 }>
%struct.SampleTool = type { ptr }

@.str = private unnamed_addr constant [8 x i8] c"One Way\00", align 1
@.str.1 = private unnamed_addr constant [14 x i8] c"Bidirectional\00", align 1

; Function Attrs: mustprogress uwtable
define dso_local void @_ZN21OffMeshConnectionTool10handleMenuEv(ptr noundef nonnull align 8 dereferenceable(31) %0) unnamed_addr #4 align 2 {
  %2 = alloca ptr, align 8
  store ptr %0, ptr %2, align 8
  %3 = load ptr, ptr %2, align 8
  %4 = getelementptr inbounds %class.OffMeshConnectionTool, ptr %3, i32 0, i32 4
  %5 = load i8, ptr %4, align 1
  %6 = trunc i8 %5 to i1
  %7 = xor i1 %6, true
  %8 = call noundef zeroext i1 @_Z10imguiCheckPKcbb(ptr noundef @.str, i1 noundef zeroext %7, i1 noundef zeroext true)
  br i1 %8, label %9, label %11

9:                                                ; preds = %1
  %10 = getelementptr inbounds %class.OffMeshConnectionTool, ptr %3, i32 0, i32 4
  store i8 0, ptr %10, align 1
  br label %11

11:                                               ; preds = %9, %1
  %12 = getelementptr inbounds %class.OffMeshConnectionTool, ptr %3, i32 0, i32 4
  %13 = load i8, ptr %12, align 1
  %14 = trunc i8 %13 to i1
  %15 = call noundef zeroext i1 @_Z10imguiCheckPKcbb(ptr noundef @.str.1, i1 noundef zeroext %14, i1 noundef zeroext true)
  br i1 %15, label %16, label %18

16:                                               ; preds = %11
  %17 = getelementptr inbounds %class.OffMeshConnectionTool, ptr %3, i32 0, i32 4
  store i8 1, ptr %17, align 1
  br label %18

18:                                               ; preds = %16, %11
  ret void
}