; Function Attrs: mustprogress uwtable
define dso_local void @_ZN21OffMeshConnectionTool10handleMenuEv(ptr nocapture noundef nonnull align 8 dereferenceable(31) %0) unnamed_addr #5 align 2 {
  %2 = getelementptr inbounds i8, ptr %0, i64 29
  %3 = load i8, ptr %2, align 1
  %4 = and i8 %3, 1
  %.not = icmp eq i8 %4, 0
  %5 = tail call noundef zeroext i1 @_Z10imguiCheckPKcbb(ptr noundef nonnull @.str, i1 noundef zeroext %.not, i1 noundef zeroext true)
  br i1 %5, label %8, label %._crit_edge

._crit_edge:                                      ; preds = %1
  %.pre = load i8, ptr %2, align 1
  %6 = and i8 %.pre, 1
  %7 = icmp ne i8 %6, 0
  br label %9

8:                                                ; preds = %1
  store i8 0, ptr %2, align 1
  br label %9

9:                                                ; preds = %._crit_edge, %8
  %10 = phi i1 [ %7, %._crit_edge ], [ false, %8 ]
  %11 = tail call noundef zeroext i1 @_Z10imguiCheckPKcbb(ptr noundef nonnull @.str.1, i1 noundef zeroext %10, i1 noundef zeroext true)
  br i1 %11, label %12, label %13

12:                                               ; preds = %9
  store i8 1, ptr %2, align 1
  br label %13

13:                                               ; preds = %12, %9
  ret void
}